target datalayout = "e-m:e-p270:32:32-p271:32:32-p272:64:64-i64:64-i128:128-f80:128-n8:16:32:64-S128"
target triple = "x86_64-pc-linux-gnu"

%struct.declared_list = type { ptr, ptr, ptr }

@connection = dso_local global ptr null, align 8
@g_declared_list = external global ptr, align 8
@.str.177 = private unnamed_addr constant [61 x i8] c"connection %s is overwritten with %s by DECLARE statement %s\00", align 1

; Function Attrs: nounwind uwtable
define internal void @update_connection(ptr noundef %0) #0 {
  %2 = alloca ptr, align 8
  store ptr %0, ptr %2, align 8
  %3 = load ptr, ptr %2, align 8
  %4 = icmp ne ptr %3, null
  br i1 %4, label %5, label %9

5:                                                ; preds = %1
  %6 = load ptr, ptr @connection, align 8
  call void @free(ptr noundef %6) #11
  %7 = load ptr, ptr %2, align 8
  %8 = call ptr @mm_strdup(ptr noundef %7)
  store ptr %8, ptr @connection, align 8
  br label %9

9:                                                ; preds = %5, %1
  ret void
}

; Function Attrs: nounwind uwtable
define internal zeroext i1 @check_declared_list(ptr noundef %0) #0 {
  %2 = alloca i1, align 1
  %3 = alloca ptr, align 8
  %4 = alloca ptr, align 8
  %5 = alloca i32, align 4
  store ptr %0, ptr %3, align 8
  call void @llvm.lifetime.start.p0(i64 8, ptr %4) #11
  store ptr null, ptr %4, align 8
  %6 = load ptr, ptr @g_declared_list, align 8
  store ptr %6, ptr %4, align 8
  br label %7

7:                                                ; preds = %44, %1
  %8 = load ptr, ptr %4, align 8
  %9 = icmp ne ptr %8, null
  br i1 %9, label %10, label %48

10:                                               ; preds = %7
  %11 = load ptr, ptr %4, align 8
  %12 = getelementptr inbounds nuw %struct.declared_list, ptr %11, i32 0, i32 1
  %13 = load ptr, ptr %12, align 8
  %14 = icmp ne ptr %13, null
  br i1 %14, label %16, label %15

15:                                               ; preds = %10
  br label %44

16:                                               ; preds = %10
  %17 = load ptr, ptr %3, align 8
  %18 = load ptr, ptr %4, align 8
  %19 = getelementptr inbounds nuw %struct.declared_list, ptr %18, i32 0, i32 0
  %20 = load ptr, ptr %19, align 8
  %21 = call i32 @strcmp(ptr noundef %17, ptr noundef %20) #13
  %22 = icmp eq i32 %21, 0
  br i1 %22, label %23, label %43

23:                                               ; preds = %16
  %24 = load ptr, ptr @connection, align 8
  %25 = icmp ne ptr %24, null
  br i1 %25, label %26, label %39

26:                                               ; preds = %23
  %27 = load ptr, ptr %4, align 8
  %28 = getelementptr inbounds nuw %struct.declared_list, ptr %27, i32 0, i32 1
  %29 = load ptr, ptr %28, align 8
  %30 = load ptr, ptr @connection, align 8
  %31 = call i32 @strcmp(ptr noundef %29, ptr noundef %30) #13
  %32 = icmp ne i32 %31, 0
  br i1 %32, label %33, label %39

33:                                               ; preds = %26
  %34 = load ptr, ptr @connection, align 8
  %35 = load ptr, ptr %4, align 8
  %36 = getelementptr inbounds nuw %struct.declared_list, ptr %35, i32 0, i32 1
  %37 = load ptr, ptr %36, align 8
  %38 = load ptr, ptr %3, align 8
  call void (i32, i32, ptr, ...) @mmerror(i32 noundef 3, i32 noundef 0, ptr noundef @.str.177, ptr noundef %34, ptr noundef %37, ptr noundef %38)
  br label %39

39:                                               ; preds = %33, %26, %23
  %40 = load ptr, ptr %4, align 8
  %41 = getelementptr inbounds nuw %struct.declared_list, ptr %40, i32 0, i32 1
  %42 = load ptr, ptr %41, align 8
  call void @update_connection(ptr noundef %42)
  store i1 true, ptr %2, align 1
  store i32 1, ptr %5, align 4
  br label %49

43:                                               ; preds = %16
  br label %44

44:                                               ; preds = %43, %15
  %45 = load ptr, ptr %4, align 8
  %46 = getelementptr inbounds nuw %struct.declared_list, ptr %45, i32 0, i32 2
  %47 = load ptr, ptr %46, align 8
  store ptr %47, ptr %4, align 8
  br label %7, !llvm.loop !18

48:                                               ; preds = %7
  store i1 false, ptr %2, align 1
  store i32 1, ptr %5, align 4
  br label %49

49:                                               ; preds = %48, %39
  call void @llvm.lifetime.end.p0(i64 8, ptr %4) #11
  %50 = load i1, ptr %2, align 1
  ret i1 %50
}