; Function Attrs: nounwind uwtable
define internal fastcc void @check_declared_list(ptr noundef %0) unnamed_addr #0 {
  %.019 = load ptr, ptr @g_declared_list, align 8
  %.not20.not = icmp eq ptr %.019, null
  br i1 %.not20.not, label %update_connection.exit, label %.lr.ph

.lr.ph:                                           ; preds = %1, %17
  %.021 = phi ptr [ %.0, %17 ], [ %.019, %1 ]
  %2 = getelementptr inbounds nuw i8, ptr %.021, i64 8
  %3 = load ptr, ptr %2, align 8
  %.not13 = icmp eq ptr %3, null
  br i1 %.not13, label %17, label %4

4:                                                ; preds = %.lr.ph
  %5 = load ptr, ptr %.021, align 8
  %6 = tail call i32 @strcmp(ptr noundef nonnull dereferenceable(1) %0, ptr noundef nonnull dereferenceable(1) %5) #17
  %7 = icmp eq i32 %6, 0
  br i1 %7, label %8, label %17

8:                                                ; preds = %4
  %9 = getelementptr inbounds nuw i8, ptr %.021, i64 8
  %10 = load ptr, ptr @connection, align 8
  %.not14 = icmp eq ptr %10, null
  br i1 %.not14, label %.thread, label %11

11:                                               ; preds = %8
  %12 = tail call i32 @strcmp(ptr noundef nonnull dereferenceable(1) %3, ptr noundef nonnull dereferenceable(1) %10) #17
  %.not15 = icmp eq i32 %12, 0
  br i1 %.not15, label %.thread, label %13

13:                                               ; preds = %11
  tail call void (i32, i32, ptr, ...) @mmerror(i32 noundef 3, i32 noundef 0, ptr noundef nonnull @.str.177, ptr noundef nonnull %10, ptr noundef nonnull %3, ptr noundef nonnull %0) #15
  %.pre = load ptr, ptr %9, align 8
  %.not.i = icmp eq ptr %.pre, null
  br i1 %.not.i, label %update_connection.exit, label %.thread

.thread:                                          ; preds = %8, %11, %13
  %14 = phi ptr [ %.pre, %13 ], [ %3, %11 ], [ %3, %8 ]
  %15 = load ptr, ptr @connection, align 8
  tail call void @free(ptr noundef %15) #15
  %16 = tail call ptr @mm_strdup(ptr noundef nonnull %14) #15
  store ptr %16, ptr @connection, align 8
  br label %update_connection.exit

17:                                               ; preds = %4, %.lr.ph
  %18 = getelementptr inbounds nuw i8, ptr %.021, i64 16
  %.0 = load ptr, ptr %18, align 8
  %.not.not = icmp eq ptr %.0, null
  br i1 %.not.not, label %update_connection.exit, label %.lr.ph, !llvm.loop !18

update_connection.exit:                           ; preds = %17, %1, %.thread, %13
  ret void
}